target datalayout = "e-m:e-p270:32:32-p271:32:32-p272:64:64-i64:64-i128:128-f80:128-n8:16:32:64-S128"
target triple = "x86_64-pc-linux-gnu"

%struct.mspack_system = type { ptr, ptr, ptr, ptr, ptr, ptr, ptr, ptr, ptr, ptr, ptr }
%struct.mskwaj_decompressor_p = type { %struct.mskwaj_decompressor, ptr, i32 }
%struct.mskwaj_decompressor = type { ptr, ptr, ptr, ptr, ptr }
%struct.mskwajd_header_p = type { %struct.mskwajd_header, ptr }
%struct.mskwajd_header = type { i16, i64, i32, i64, ptr, ptr, i16 }
%struct.kwajd_stream = type { ptr, ptr, ptr, ptr, ptr, i32, i32, i32, [16 x i8], [16 x i8], [32 x i8], [64 x i8], [256 x i8], [544 x i16], [544 x i16], [576 x i16], [640 x i16], [1024 x i16], [2048 x i8], [4096 x i8] }

; Function Attrs: nounwind uwtable
define internal void @lzh_free(ptr noundef %0) #0 {
  %2 = alloca ptr, align 8
  %3 = alloca ptr, align 8
  store ptr %0, ptr %2, align 8
  %4 = load ptr, ptr %2, align 8
  %5 = icmp ne ptr %4, null
  br i1 %5, label %6, label %11

6:                                                ; preds = %1
  %7 = load ptr, ptr %2, align 8
  %8 = getelementptr inbounds %struct.kwajd_stream, ptr %7, i32 0, i32 0
  %9 = load ptr, ptr %8, align 8
  %10 = icmp ne ptr %9, null
  br i1 %10, label %12, label %11

11:                                               ; preds = %6, %1
  br label %20

12:                                               ; preds = %6
  %13 = load ptr, ptr %2, align 8
  %14 = getelementptr inbounds %struct.kwajd_stream, ptr %13, i32 0, i32 0
  %15 = load ptr, ptr %14, align 8
  store ptr %15, ptr %3, align 8
  %16 = load ptr, ptr %3, align 8
  %17 = getelementptr inbounds %struct.mspack_system, ptr %16, i32 0, i32 8
  %18 = load ptr, ptr %17, align 8
  %19 = load ptr, ptr %2, align 8
  call void %18(ptr noundef %19)
  br label %20

20:                                               ; preds = %12, %11
  ret void
}

; Function Attrs: nounwind uwtable
define internal ptr @lzh_init(ptr noundef %0, ptr noundef %1, ptr noundef %2) #0 {
  %4 = alloca ptr, align 8
  %5 = alloca ptr, align 8
  %6 = alloca ptr, align 8
  %7 = alloca ptr, align 8
  %8 = alloca ptr, align 8
  store ptr %0, ptr %5, align 8
  store ptr %1, ptr %6, align 8
  store ptr %2, ptr %7, align 8
  %9 = load ptr, ptr %5, align 8
  %10 = icmp ne ptr %9, null
  br i1 %10, label %11, label %17

11:                                               ; preds = %3
  %12 = load ptr, ptr %6, align 8
  %13 = icmp ne ptr %12, null
  br i1 %13, label %14, label %17

14:                                               ; preds = %11
  %15 = load ptr, ptr %7, align 8
  %16 = icmp ne ptr %15, null
  br i1 %16, label %18, label %17

17:                                               ; preds = %14, %11, %3
  store ptr null, ptr %4, align 8
  br label %37

18:                                               ; preds = %14
  %19 = load ptr, ptr %5, align 8
  %20 = getelementptr inbounds %struct.mspack_system, ptr %19, i32 0, i32 7
  %21 = load ptr, ptr %20, align 8
  %22 = load ptr, ptr %5, align 8
  %23 = call ptr %21(ptr noundef %22, i64 noundef 13240)
  store ptr %23, ptr %8, align 8
  %24 = icmp ne ptr %23, null
  br i1 %24, label %26, label %25

25:                                               ; preds = %18
  store ptr null, ptr %4, align 8
  br label %37

26:                                               ; preds = %18
  %27 = load ptr, ptr %5, align 8
  %28 = load ptr, ptr %8, align 8
  %29 = getelementptr inbounds %struct.kwajd_stream, ptr %28, i32 0, i32 0
  store ptr %27, ptr %29, align 8
  %30 = load ptr, ptr %6, align 8
  %31 = load ptr, ptr %8, align 8
  %32 = getelementptr inbounds %struct.kwajd_stream, ptr %31, i32 0, i32 1
  store ptr %30, ptr %32, align 8
  %33 = load ptr, ptr %7, align 8
  %34 = load ptr, ptr %8, align 8
  %35 = getelementptr inbounds %struct.kwajd_stream, ptr %34, i32 0, i32 2
  store ptr %33, ptr %35, align 8
  %36 = load ptr, ptr %8, align 8
  store ptr %36, ptr %4, align 8
  br label %37

37:                                               ; preds = %26, %25, %17
  %38 = load ptr, ptr %4, align 8
  ret ptr %38
}

; Function Attrs: nounwind uwtable
define internal i32 @kwajd_extract(ptr noundef %0, ptr noundef %1, ptr noundef %2) #0 {
  %4 = alloca i32, align 4
  %5 = alloca ptr, align 8
  %6 = alloca ptr, align 8
  %7 = alloca ptr, align 8
  %8 = alloca ptr, align 8
  %9 = alloca ptr, align 8
  %10 = alloca ptr, align 8
  %11 = alloca ptr, align 8
  %12 = alloca ptr, align 8
  %13 = alloca i32, align 4
  %14 = alloca i32, align 4
  %15 = alloca ptr, align 8
  %16 = alloca ptr, align 8
  store ptr %0, ptr %5, align 8
  store ptr %1, ptr %6, align 8
  store ptr %2, ptr %7, align 8
  %17 = load ptr, ptr %5, align 8
  store ptr %17, ptr %8, align 8
  %18 = load ptr, ptr %8, align 8
  %19 = icmp ne ptr %18, null
  br i1 %19, label %21, label %20

20:                                               ; preds = %3
  store i32 1, ptr %4, align 4
  br label %212

21:                                               ; preds = %3
  %22 = load ptr, ptr %6, align 8
  %23 = icmp ne ptr %22, null
  br i1 %23, label %27, label %24

24:                                               ; preds = %21
  %25 = load ptr, ptr %8, align 8
  %26 = getelementptr inbounds %struct.mskwaj_decompressor_p, ptr %25, i32 0, i32 2
  store i32 1, ptr %26, align 8
  store i32 1, ptr %4, align 4
  br label %212

27:                                               ; preds = %21
  %28 = load ptr, ptr %8, align 8
  %29 = getelementptr inbounds %struct.mskwaj_decompressor_p, ptr %28, i32 0, i32 1
  %30 = load ptr, ptr %29, align 8
  store ptr %30, ptr %9, align 8
  %31 = load ptr, ptr %6, align 8
  %32 = getelementptr inbounds %struct.mskwajd_header_p, ptr %31, i32 0, i32 1
  %33 = load ptr, ptr %32, align 8
  store ptr %33, ptr %10, align 8
  %34 = load ptr, ptr %9, align 8
  %35 = getelementptr inbounds %struct.mspack_system, ptr %34, i32 0, i32 4
  %36 = load ptr, ptr %35, align 8
  %37 = load ptr, ptr %10, align 8
  %38 = load ptr, ptr %6, align 8
  %39 = getelementptr inbounds %struct.mskwajd_header, ptr %38, i32 0, i32 1
  %40 = load i64, ptr %39, align 8
  %41 = call i32 %36(ptr noundef %37, i64 noundef %40, i32 noundef 0)
  %42 = icmp ne i32 %41, 0
  br i1 %42, label %43, label %46

43:                                               ; preds = %27
  %44 = load ptr, ptr %8, align 8
  %45 = getelementptr inbounds %struct.mskwaj_decompressor_p, ptr %44, i32 0, i32 2
  store i32 5, ptr %45, align 8
  store i32 5, ptr %4, align 4
  br label %212

46:                                               ; preds = %27
  %47 = load ptr, ptr %9, align 8
  %48 = getelementptr inbounds %struct.mspack_system, ptr %47, i32 0, i32 0
  %49 = load ptr, ptr %48, align 8
  %50 = load ptr, ptr %9, align 8
  %51 = load ptr, ptr %7, align 8
  %52 = call ptr %49(ptr noundef %50, ptr noundef %51, i32 noundef 1)
  store ptr %52, ptr %11, align 8
  %53 = icmp ne ptr %52, null
  br i1 %53, label %57, label %54

54:                                               ; preds = %46
  %55 = load ptr, ptr %8, align 8
  %56 = getelementptr inbounds %struct.mskwaj_decompressor_p, ptr %55, i32 0, i32 2
  store i32 2, ptr %56, align 8
  store i32 2, ptr %4, align 4
  br label %212

57:                                               ; preds = %46
  %58 = load ptr, ptr %8, align 8
  %59 = getelementptr inbounds %struct.mskwaj_decompressor_p, ptr %58, i32 0, i32 2
  store i32 0, ptr %59, align 8
  %60 = load ptr, ptr %6, align 8
  %61 = getelementptr inbounds %struct.mskwajd_header, ptr %60, i32 0, i32 0
  %62 = load i16, ptr %61, align 8
  %63 = zext i16 %62 to i32
  %64 = icmp eq i32 %63, 0
  br i1 %64, label %71, label %65

65:                                               ; preds = %57
  %66 = load ptr, ptr %6, align 8
  %67 = getelementptr inbounds %struct.mskwajd_header, ptr %66, i32 0, i32 0
  %68 = load i16, ptr %67, align 8
  %69 = zext i16 %68 to i32
  %70 = icmp eq i32 %69, 1
  br i1 %70, label %71, label %141

71:                                               ; preds = %65, %57
  %72 = load ptr, ptr %9, align 8
  %73 = getelementptr inbounds %struct.mspack_system, ptr %72, i32 0, i32 7
  %74 = load ptr, ptr %73, align 8
  %75 = load ptr, ptr %9, align 8
  %76 = call ptr %74(ptr noundef %75, i64 noundef 2048)
  store ptr %76, ptr %12, align 8
  %77 = load ptr, ptr %12, align 8
  %78 = icmp ne ptr %77, null
  br i1 %78, label %79, label %137

79:                                               ; preds = %71
  br label %80

80:                                               ; preds = %125, %79
  %81 = load ptr, ptr %9, align 8
  %82 = getelementptr inbounds %struct.mspack_system, ptr %81, i32 0, i32 2
  %83 = load ptr, ptr %82, align 8
  %84 = load ptr, ptr %10, align 8
  %85 = load ptr, ptr %12, align 8
  %86 = call i32 %83(ptr noundef %84, ptr noundef %85, i32 noundef 2048)
  store i32 %86, ptr %13, align 4
  %87 = icmp sgt i32 %86, 0
  br i1 %87, label %88, label %126

88:                                               ; preds = %80
  %89 = load ptr, ptr %6, align 8
  %90 = getelementptr inbounds %struct.mskwajd_header, ptr %89, i32 0, i32 0
  %91 = load i16, ptr %90, align 8
  %92 = zext i16 %91 to i32
  %93 = icmp eq i32 %92, 1
  br i1 %93, label %94, label %112

94:                                               ; preds = %88
  store i32 0, ptr %14, align 4
  br label %95

95:                                               ; preds = %108, %94
  %96 = load i32, ptr %14, align 4
  %97 = load i32, ptr %13, align 4
  %98 = icmp slt i32 %96, %97
  br i1 %98, label %99, label %111

99:                                               ; preds = %95
  %100 = load ptr, ptr %12, align 8
  %101 = load i32, ptr %14, align 4
  %102 = sext i32 %101 to i64
  %103 = getelementptr inbounds i8, ptr %100, i64 %102
  %104 = load i8, ptr %103, align 1
  %105 = zext i8 %104 to i32
  %106 = xor i32 %105, 255
  %107 = trunc i32 %106 to i8
  store i8 %107, ptr %103, align 1
  br label %108

108:                                              ; preds = %99
  %109 = load i32, ptr %14, align 4
  %110 = add nsw i32 %109, 1
  store i32 %110, ptr %14, align 4
  br label %95

111:                                              ; preds = %95
  br label %112

112:                                              ; preds = %111, %88
  %113 = load ptr, ptr %9, align 8
  %114 = getelementptr inbounds %struct.mspack_system, ptr %113, i32 0, i32 3
  %115 = load ptr, ptr %114, align 8
  %116 = load ptr, ptr %11, align 8
  %117 = load ptr, ptr %12, align 8
  %118 = load i32, ptr %13, align 4
  %119 = call i32 %115(ptr noundef %116, ptr noundef %117, i32 noundef %118)
  %120 = load i32, ptr %13, align 4
  %121 = icmp ne i32 %119, %120
  br i1 %121, label %122, label %125

122:                                              ; preds = %112
  %123 = load ptr, ptr %8, align 8
  %124 = getelementptr inbounds %struct.mskwaj_decompressor_p, ptr %123, i32 0, i32 2
  store i32 4, ptr %124, align 8
  br label %126

125:                                              ; preds = %112
  br label %80

126:                                              ; preds = %122, %80
  %127 = load i32, ptr %13, align 4
  %128 = icmp slt i32 %127, 0
  br i1 %128, label %129, label %132

129:                                              ; preds = %126
  %130 = load ptr, ptr %8, align 8
  %131 = getelementptr inbounds %struct.mskwaj_decompressor_p, ptr %130, i32 0, i32 2
  store i32 3, ptr %131, align 8
  br label %132

132:                                              ; preds = %129, %126
  %133 = load ptr, ptr %9, align 8
  %134 = getelementptr inbounds %struct.mspack_system, ptr %133, i32 0, i32 8
  %135 = load ptr, ptr %134, align 8
  %136 = load ptr, ptr %12, align 8
  call void %135(ptr noundef %136)
  br label %140

137:                                              ; preds = %71
  %138 = load ptr, ptr %8, align 8
  %139 = getelementptr inbounds %struct.mskwaj_decompressor_p, ptr %138, i32 0, i32 2
  store i32 6, ptr %139, align 8
  br label %140

140:                                              ; preds = %137, %132
  br label %204

141:                                              ; preds = %65
  %142 = load ptr, ptr %6, align 8
  %143 = getelementptr inbounds %struct.mskwajd_header, ptr %142, i32 0, i32 0
  %144 = load i16, ptr %143, align 8
  %145 = zext i16 %144 to i32
  %146 = icmp eq i32 %145, 2
  br i1 %146, label %147, label %154

147:                                              ; preds = %141
  %148 = load ptr, ptr %9, align 8
  %149 = load ptr, ptr %10, align 8
  %150 = load ptr, ptr %11, align 8
  %151 = call i32 @lzss_decompress(ptr noundef %148, ptr noundef %149, ptr noundef %150, i32 noundef 2048, i32 noundef 2)
  %152 = load ptr, ptr %8, align 8
  %153 = getelementptr inbounds %struct.mskwaj_decompressor_p, ptr %152, i32 0, i32 2
  store i32 %151, ptr %153, align 8
  br label %203

154:                                              ; preds = %141
  %155 = load ptr, ptr %6, align 8
  %156 = getelementptr inbounds %struct.mskwajd_header, ptr %155, i32 0, i32 0
  %157 = load i16, ptr %156, align 8
  %158 = zext i16 %157 to i32
  %159 = icmp eq i32 %158, 3
  br i1 %159, label %160, label %176

160:                                              ; preds = %154
  %161 = load ptr, ptr %9, align 8
  %162 = load ptr, ptr %10, align 8
  %163 = load ptr, ptr %11, align 8
  %164 = call ptr @lzh_init(ptr noundef %161, ptr noundef %162, ptr noundef %163)
  store ptr %164, ptr %15, align 8
  %165 = load ptr, ptr %15, align 8
  %166 = icmp ne ptr %165, null
  br i1 %166, label %167, label %170

167:                                              ; preds = %160
  %168 = load ptr, ptr %15, align 8
  %169 = call i32 @lzh_decompress(ptr noundef %168)
  br label %171

170:                                              ; preds = %160
  br label %171

171:                                              ; preds = %170, %167
  %172 = phi i32 [ %169, %167 ], [ 6, %170 ]
  %173 = load ptr, ptr %8, align 8
  %174 = getelementptr inbounds %struct.mskwaj_decompressor_p, ptr %173, i32 0, i32 2
  store i32 %172, ptr %174, align 8
  %175 = load ptr, ptr %15, align 8
  call void @lzh_free(ptr noundef %175)
  br label %202

176:                                              ; preds = %154
  %177 = load ptr, ptr %6, align 8
  %178 = getelementptr inbounds %struct.mskwajd_header, ptr %177, i32 0, i32 0
  %179 = load i16, ptr %178, align 8
  %180 = zext i16 %179 to i32
  %181 = icmp eq i32 %180, 4
  br i1 %181, label %182, label %198

182:                                              ; preds = %176
  %183 = load ptr, ptr %9, align 8
  %184 = load ptr, ptr %10, align 8
  %185 = load ptr, ptr %11, align 8
  %186 = call ptr @mszipd_init(ptr noundef %183, ptr noundef %184, ptr noundef %185, i32 noundef 2048, i32 noundef 0)
  store ptr %186, ptr %16, align 8
  %187 = load ptr, ptr %16, align 8
  %188 = icmp ne ptr %187, null
  br i1 %188, label %189, label %192

189:                                              ; preds = %182
  %190 = load ptr, ptr %16, align 8
  %191 = call i32 @mszipd_decompress_kwaj(ptr noundef %190)
  br label %193

192:                                              ; preds = %182
  br label %193

193:                                              ; preds = %192, %189
  %194 = phi i32 [ %191, %189 ], [ 6, %192 ]
  %195 = load ptr, ptr %8, align 8
  %196 = getelementptr inbounds %struct.mskwaj_decompressor_p, ptr %195, i32 0, i32 2
  store i32 %194, ptr %196, align 8
  %197 = load ptr, ptr %16, align 8
  call void @mszipd_free(ptr noundef %197)
  br label %201

198:                                              ; preds = %176
  %199 = load ptr, ptr %8, align 8
  %200 = getelementptr inbounds %struct.mskwaj_decompressor_p, ptr %199, i32 0, i32 2
  store i32 8, ptr %200, align 8
  br label %201

201:                                              ; preds = %198, %193
  br label %202

202:                                              ; preds = %201, %171
  br label %203

203:                                              ; preds = %202, %147
  br label %204

204:                                              ; preds = %203, %140
  %205 = load ptr, ptr %9, align 8
  %206 = getelementptr inbounds %struct.mspack_system, ptr %205, i32 0, i32 1
  %207 = load ptr, ptr %206, align 8
  %208 = load ptr, ptr %11, align 8
  call void %207(ptr noundef %208)
  %209 = load ptr, ptr %8, align 8
  %210 = getelementptr inbounds %struct.mskwaj_decompressor_p, ptr %209, i32 0, i32 2
  %211 = load i32, ptr %210, align 8
  store i32 %211, ptr %4, align 4
  br label %212

212:                                              ; preds = %204, %54, %43, %24, %20
  %213 = load i32, ptr %4, align 4
  ret i32 %213
}