; Function Attrs: nounwind uwtable
define internal i32 @kwajd_extract(ptr noundef %0, ptr noundef readonly %1, ptr noundef %2) #0 {
  %.not = icmp eq ptr %0, null
  br i1 %.not, label %76, label %4

4:                                                ; preds = %3
  %.not74 = icmp eq ptr %1, null
  br i1 %.not74, label %5, label %7

5:                                                ; preds = %4
  %6 = getelementptr inbounds nuw i8, ptr %0, i64 48
  store i32 1, ptr %6, align 8
  br label %76

7:                                                ; preds = %4
  %8 = getelementptr inbounds nuw i8, ptr %0, i64 40
  %9 = load ptr, ptr %8, align 8
  %10 = getelementptr inbounds nuw i8, ptr %1, i64 56
  %11 = load ptr, ptr %10, align 8
  %12 = getelementptr inbounds nuw i8, ptr %9, i64 32
  %13 = load ptr, ptr %12, align 8
  %14 = getelementptr inbounds nuw i8, ptr %1, i64 8
  %15 = load i64, ptr %14, align 8
  %16 = tail call i32 %13(ptr noundef %11, i64 noundef %15, i32 noundef 0) #6
  %.not75 = icmp eq i32 %16, 0
  br i1 %.not75, label %19, label %17

17:                                               ; preds = %7
  %18 = getelementptr inbounds nuw i8, ptr %0, i64 48
  store i32 5, ptr %18, align 8
  br label %76

19:                                               ; preds = %7
  %20 = load ptr, ptr %9, align 8
  %21 = tail call ptr %20(ptr noundef nonnull %9, ptr noundef %2, i32 noundef 1) #6
  %.not76 = icmp eq ptr %21, null
  %22 = getelementptr inbounds nuw i8, ptr %0, i64 48
  br i1 %.not76, label %23, label %24

23:                                               ; preds = %19
  store i32 2, ptr %22, align 8
  br label %76

24:                                               ; preds = %19
  store i32 0, ptr %22, align 8
  %25 = load i16, ptr %1, align 8
  switch i16 %25, label %72 [
    i16 0, label %26
    i16 1, label %26
    i16 2, label %51
    i16 3, label %53
    i16 4, label %66
  ]

26:                                               ; preds = %24, %24
  %27 = getelementptr inbounds nuw i8, ptr %9, i64 56
  %28 = load ptr, ptr %27, align 8
  %29 = tail call ptr %28(ptr noundef nonnull %9, i64 noundef 2048) #6
  %.not79 = icmp eq ptr %29, null
  br i1 %.not79, label %50, label %.preheader85

.preheader85:                                     ; preds = %26
  %30 = getelementptr inbounds nuw i8, ptr %9, i64 16
  %31 = getelementptr inbounds nuw i8, ptr %9, i64 24
  br label %32

32:                                               ; preds = %.preheader85, %.loopexit
  %33 = load ptr, ptr %30, align 8
  %34 = tail call i32 %33(ptr noundef %11, ptr noundef nonnull %29, i32 noundef 2048) #6
  %35 = icmp sgt i32 %34, 0
  br i1 %35, label %36, label %.loopexit86

36:                                               ; preds = %32
  %37 = load i16, ptr %1, align 8
  %38 = icmp eq i16 %37, 1
  br i1 %38, label %.lr.ph.preheader, label %.loopexit

.lr.ph.preheader:                                 ; preds = %36
  %wide.trip.count = zext nneg i32 %34 to i64
  br label %.lr.ph

.lr.ph:                                           ; preds = %.lr.ph.preheader, %.lr.ph
  %indvars.iv = phi i64 [ 0, %.lr.ph.preheader ], [ %indvars.iv.next, %.lr.ph ]
  %39 = getelementptr inbounds nuw i8, ptr %29, i64 %indvars.iv
  %40 = load i8, ptr %39, align 1
  %41 = xor i8 %40, -1
  store i8 %41, ptr %39, align 1
  %indvars.iv.next = add nuw nsw i64 %indvars.iv, 1
  %exitcond.not = icmp eq i64 %indvars.iv.next, %wide.trip.count
  br i1 %exitcond.not, label %.loopexit, label %.lr.ph

.loopexit:                                        ; preds = %.lr.ph, %36
  %42 = load ptr, ptr %31, align 8
  %43 = tail call i32 %42(ptr noundef nonnull %21, ptr noundef nonnull %29, i32 noundef %34) #6
  %.not80 = icmp eq i32 %43, %34
  br i1 %.not80, label %32, label %44

44:                                               ; preds = %.loopexit
  store i32 4, ptr %22, align 8
  br label %.loopexit86

.loopexit86:                                      ; preds = %32, %44
  %45 = icmp slt i32 %34, 0
  br i1 %45, label %46, label %47

46:                                               ; preds = %.loopexit86
  store i32 3, ptr %22, align 8
  br label %47

47:                                               ; preds = %46, %.loopexit86
  %48 = getelementptr inbounds nuw i8, ptr %9, i64 64
  %49 = load ptr, ptr %48, align 8
  tail call void %49(ptr noundef nonnull %29) #6
  br label %lzh_free.exit

50:                                               ; preds = %26
  store i32 6, ptr %22, align 8
  br label %lzh_free.exit

51:                                               ; preds = %24
  %52 = tail call i32 @lzss_decompress(ptr noundef nonnull %9, ptr noundef %11, ptr noundef nonnull %21, i32 noundef 2048, i32 noundef 2) #6
  store i32 %52, ptr %22, align 8
  br label %lzh_free.exit

53:                                               ; preds = %24
  %.not84 = icmp eq ptr %11, null
  br i1 %.not84, label %.split66, label %54

54:                                               ; preds = %53
  %55 = getelementptr inbounds nuw i8, ptr %9, i64 56
  %56 = load ptr, ptr %55, align 8
  %57 = tail call ptr %56(ptr noundef nonnull %9, i64 noundef 13240) #6
  %.not.i = icmp eq ptr %57, null
  br i1 %.not.i, label %.split66, label %58

.split66:                                         ; preds = %53, %54
  store i32 6, ptr %22, align 8
  br label %lzh_free.exit

58:                                               ; preds = %54
  store ptr %9, ptr %57, align 8
  %59 = getelementptr inbounds nuw i8, ptr %57, i64 8
  store ptr %11, ptr %59, align 8
  %60 = getelementptr inbounds nuw i8, ptr %57, i64 16
  store ptr %21, ptr %60, align 8
  %61 = tail call fastcc i32 @lzh_decompress(ptr noundef %57)
  store i32 %61, ptr %22, align 8
  %62 = load ptr, ptr %57, align 8
  %.not6.i = icmp eq ptr %62, null
  br i1 %.not6.i, label %lzh_free.exit, label %63

63:                                               ; preds = %58
  %64 = getelementptr inbounds nuw i8, ptr %62, i64 64
  %65 = load ptr, ptr %64, align 8
  tail call void %65(ptr noundef nonnull %57) #6
  br label %lzh_free.exit

66:                                               ; preds = %24
  %67 = tail call ptr @mszipd_init(ptr noundef nonnull %9, ptr noundef %11, ptr noundef nonnull %21, i32 noundef 2048, i32 noundef 0) #6
  %.not77 = icmp eq ptr %67, null
  br i1 %.not77, label %70, label %68

68:                                               ; preds = %66
  %69 = tail call i32 @mszipd_decompress_kwaj(ptr noundef nonnull %67) #6
  br label %70

70:                                               ; preds = %66, %68
  %71 = phi i32 [ %69, %68 ], [ 6, %66 ]
  store i32 %71, ptr %22, align 8
  tail call void @mszipd_free(ptr noundef %67) #6
  br label %lzh_free.exit

72:                                               ; preds = %24
  store i32 8, ptr %22, align 8
  br label %lzh_free.exit

lzh_free.exit:                                    ; preds = %63, %58, %.split66, %51, %70, %72, %47, %50
  %73 = getelementptr inbounds nuw i8, ptr %9, i64 8
  %74 = load ptr, ptr %73, align 8
  tail call void %74(ptr noundef nonnull %21) #6
  %75 = load i32, ptr %22, align 8
  br label %76

76:                                               ; preds = %3, %lzh_free.exit, %23, %17, %5
  %.0 = phi i32 [ 5, %17 ], [ %75, %lzh_free.exit ], [ 2, %23 ], [ 1, %5 ], [ 1, %3 ]
  ret i32 %.0
}